target datalayout = "e-m:e-p270:32:32-p271:32:32-p272:64:64-i64:64-i128:128-f80:128-n8:16:32:64-S128"
target triple = "x86_64-pc-linux-gnu"

%struct.SDL_Pen = type { i32, ptr, %struct.SDL_PenInfo, [7 x float], float, float, i32, ptr }
%struct.SDL_PenInfo = type { i32, float, i32, i32, i32 }
%union.SDL_Event = type { %struct.SDL_MouseWheelEvent, [72 x i8] }
%struct.SDL_MouseWheelEvent = type { i32, i32, i64, i32, i32, float, float, i32, float, float, i32, i32 }
%struct.SDL_PenProximityEvent = type { i32, i32, i64, i32, i32 }

@pen_device_rwlock = internal global ptr null, align 8
@pen_device_count = internal global i32 0, align 4
@pen_devices = internal global ptr null, align 8
@.str = private unnamed_addr constant [12 x i8] c"Unnamed pen\00", align 1

; Function Attrs: nounwind uwtable
define hidden i32 @SDL_AddPenDevice(i64 noundef %0, ptr noundef %1, ptr noundef %2, ptr noundef %3) #0 {
  %5 = alloca i32, align 4
  %6 = alloca i64, align 8
  %7 = alloca ptr, align 8
  %8 = alloca ptr, align 8
  %9 = alloca ptr, align 8
  %10 = alloca ptr, align 8
  %11 = alloca i32, align 4
  %12 = alloca i32, align 4
  %13 = alloca ptr, align 8
  %14 = alloca ptr, align 8
  %15 = alloca %union.SDL_Event, align 8
  store i64 %0, ptr %6, align 8
  store ptr %1, ptr %7, align 8
  store ptr %2, ptr %8, align 8
  store ptr %3, ptr %9, align 8
  br label %16

16:                                               ; preds = %4
  br label %17

17:                                               ; preds = %16
  br label %18

18:                                               ; preds = %17
  br label %19

19:                                               ; preds = %18
  br label %20

20:                                               ; preds = %19
  br label %21

21:                                               ; preds = %20
  call void @llvm.lifetime.start.p0(i64 8, ptr %10) #6
  %22 = load ptr, ptr %7, align 8
  %23 = icmp ne ptr %22, null
  br i1 %23, label %24, label %26

24:                                               ; preds = %21
  %25 = load ptr, ptr %7, align 8
  br label %27

26:                                               ; preds = %21
  br label %27

27:                                               ; preds = %26, %24
  %28 = phi ptr [ %25, %24 ], [ @.str, %26 ]
  %29 = call noalias ptr @SDL_strdup_REAL(ptr noundef %28)
  store ptr %29, ptr %10, align 8
  %30 = load ptr, ptr %10, align 8
  %31 = icmp ne ptr %30, null
  br i1 %31, label %33, label %32

32:                                               ; preds = %27
  store i32 0, ptr %5, align 4
  store i32 1, ptr %11, align 4
  br label %89

33:                                               ; preds = %27
  call void @llvm.lifetime.start.p0(i64 4, ptr %12) #6
  store i32 0, ptr %12, align 4
  %34 = load ptr, ptr @pen_device_rwlock, align 8
  call void @SDL_LockRWLockForWriting_REAL(ptr noundef %34)
  call void @llvm.lifetime.start.p0(i64 8, ptr %13) #6
  store ptr null, ptr %13, align 8
  call void @llvm.lifetime.start.p0(i64 8, ptr %14) #6
  %35 = load ptr, ptr @pen_devices, align 8
  %36 = load i32, ptr @pen_device_count, align 4
  %37 = add nsw i32 %36, 1
  %38 = sext i32 %37 to i64
  %39 = mul i64 %38, 88
  %40 = call ptr @SDL_realloc_REAL(ptr noundef %35, i64 noundef %39) #7
  store ptr %40, ptr %14, align 8
  %41 = load ptr, ptr %14, align 8
  %42 = icmp ne ptr %41, null
  br i1 %42, label %43, label %69

43:                                               ; preds = %33
  %44 = call i32 @SDL_GetNextObjectID()
  store i32 %44, ptr %12, align 4
  %45 = load ptr, ptr %14, align 8
  store ptr %45, ptr @pen_devices, align 8
  %46 = load ptr, ptr @pen_devices, align 8
  %47 = load i32, ptr @pen_device_count, align 4
  %48 = sext i32 %47 to i64
  %49 = getelementptr inbounds %struct.SDL_Pen, ptr %46, i64 %48
  store ptr %49, ptr %13, align 8
  %50 = load i32, ptr @pen_device_count, align 4
  %51 = add nsw i32 %50, 1
  store i32 %51, ptr @pen_device_count, align 4
  %52 = load ptr, ptr %13, align 8
  call void @llvm.memset.p0.i64(ptr align 8 %52, i8 0, i64 88, i1 false)
  %53 = load i32, ptr %12, align 4
  %54 = load ptr, ptr %13, align 8
  %55 = getelementptr inbounds nuw %struct.SDL_Pen, ptr %54, i32 0, i32 0
  store i32 %53, ptr %55, align 8
  %56 = load ptr, ptr %10, align 8
  %57 = load ptr, ptr %13, align 8
  %58 = getelementptr inbounds nuw %struct.SDL_Pen, ptr %57, i32 0, i32 1
  store ptr %56, ptr %58, align 8
  %59 = load ptr, ptr %8, align 8
  %60 = icmp ne ptr %59, null
  br i1 %60, label %61, label %65

61:                                               ; preds = %43
  %62 = load ptr, ptr %13, align 8
  %63 = getelementptr inbounds nuw %struct.SDL_Pen, ptr %62, i32 0, i32 2
  %64 = load ptr, ptr %8, align 8
  call void @llvm.memcpy.p0.p0.i64(ptr align 8 %63, ptr align 4 %64, i64 20, i1 false)
  br label %65

65:                                               ; preds = %61, %43
  %66 = load ptr, ptr %9, align 8
  %67 = load ptr, ptr %13, align 8
  %68 = getelementptr inbounds nuw %struct.SDL_Pen, ptr %67, i32 0, i32 7
  store ptr %66, ptr %68, align 8
  br label %69

69:                                               ; preds = %65, %33
  %70 = load ptr, ptr @pen_device_rwlock, align 8
  call void @SDL_UnlockRWLock_REAL(ptr noundef %70)
  %71 = load ptr, ptr %13, align 8
  %72 = icmp ne ptr %71, null
  br i1 %72, label %75, label %73

73:                                               ; preds = %69
  %74 = load ptr, ptr %10, align 8
  call void @SDL_free_REAL(ptr noundef %74)
  br label %75

75:                                               ; preds = %73, %69
  %76 = load i32, ptr %12, align 4
  %77 = icmp ne i32 %76, 0
  br i1 %77, label %78, label %87

78:                                               ; preds = %75
  %79 = call zeroext i1 @SDL_EventEnabled_REAL(i32 noundef 4864)
  br i1 %79, label %80, label %87

80:                                               ; preds = %78
  call void @llvm.lifetime.start.p0(i64 128, ptr %15) #6
  call void @llvm.memset.p0.i64(ptr align 8 %15, i8 0, i64 128, i1 false)
  %81 = getelementptr inbounds nuw %struct.SDL_PenProximityEvent, ptr %15, i32 0, i32 0
  store i32 4864, ptr %81, align 8
  %82 = load i64, ptr %6, align 8
  %83 = getelementptr inbounds nuw %struct.SDL_PenProximityEvent, ptr %15, i32 0, i32 2
  store i64 %82, ptr %83, align 8
  %84 = load i32, ptr %12, align 4
  %85 = getelementptr inbounds nuw %struct.SDL_PenProximityEvent, ptr %15, i32 0, i32 4
  store i32 %84, ptr %85, align 4
  %86 = call zeroext i1 @SDL_PushEvent_REAL(ptr noundef %15)
  call void @llvm.lifetime.end.p0(i64 128, ptr %15) #6
  br label %87

87:                                               ; preds = %80, %78, %75
  %88 = load i32, ptr %12, align 4
  store i32 %88, ptr %5, align 4
  store i32 1, ptr %11, align 4
  call void @llvm.lifetime.end.p0(i64 8, ptr %14) #6
  call void @llvm.lifetime.end.p0(i64 8, ptr %13) #6
  call void @llvm.lifetime.end.p0(i64 4, ptr %12) #6
  br label %89

89:                                               ; preds = %87, %32
  call void @llvm.lifetime.end.p0(i64 8, ptr %10) #6
  %90 = load i32, ptr %5, align 4
  ret i32 %90
}