; Function Attrs: nounwind uwtable
define hidden i32 @SDL_AddPenDevice(i64 noundef %0, ptr noundef %1, ptr noundef readonly captures(address_is_null) %2, ptr noundef %3) local_unnamed_addr #0 {
  %5 = alloca %union.SDL_Event, align 8
  %.not = icmp eq ptr %1, null
  %6 = select i1 %.not, ptr @.str, ptr %1
  %7 = tail call noalias ptr @SDL_strdup_REAL(ptr noundef nonnull %6) #8
  %.not26 = icmp eq ptr %7, null
  br i1 %.not26, label %35, label %8

8:                                                ; preds = %4
  %9 = load ptr, ptr @pen_device_rwlock, align 8
  tail call void @SDL_LockRWLockForWriting_REAL(ptr noundef %9) #8
  %10 = load ptr, ptr @pen_devices, align 8
  %11 = load i32, ptr @pen_device_count, align 4
  %12 = add nsw i32 %11, 1
  %13 = sext i32 %12 to i64
  %14 = mul nsw i64 %13, 88
  %15 = tail call ptr @SDL_realloc_REAL(ptr noundef %10, i64 noundef %14) #9
  %.not27 = icmp eq ptr %15, null
  br i1 %.not27, label %.thread34, label %16

16:                                               ; preds = %8
  %17 = tail call i32 @SDL_GetNextObjectID() #8
  store ptr %15, ptr @pen_devices, align 8
  %18 = load i32, ptr @pen_device_count, align 4
  %19 = sext i32 %18 to i64
  %20 = getelementptr inbounds %struct.SDL_Pen, ptr %15, i64 %19
  %21 = add nsw i32 %18, 1
  store i32 %21, ptr @pen_device_count, align 4
  tail call void @llvm.memset.p0.i64(ptr noundef nonnull align 8 dereferenceable(88) %20, i8 0, i64 88, i1 false)
  store i32 %17, ptr %20, align 8
  %22 = getelementptr inbounds nuw i8, ptr %20, i64 8
  store ptr %7, ptr %22, align 8
  %.not28 = icmp eq ptr %2, null
  br i1 %.not28, label %26, label %23

23:                                               ; preds = %16
  %24 = getelementptr inbounds nuw i8, ptr %20, i64 16
  tail call void @llvm.memcpy.p0.p0.i64(ptr noundef nonnull align 8 dereferenceable(20) %24, ptr noundef nonnull align 4 dereferenceable(20) %2, i64 20, i1 false)
  br label %26

.thread34:                                        ; preds = %8
  %25 = load ptr, ptr @pen_device_rwlock, align 8
  tail call void @SDL_UnlockRWLock_REAL(ptr noundef %25) #8
  tail call void @SDL_free_REAL(ptr noundef nonnull %7) #8
  br label %35

26:                                               ; preds = %23, %16
  %27 = getelementptr inbounds nuw i8, ptr %20, i64 80
  store ptr %3, ptr %27, align 8
  %28 = load ptr, ptr @pen_device_rwlock, align 8
  tail call void @SDL_UnlockRWLock_REAL(ptr noundef %28) #8
  %.not30 = icmp eq i32 %17, 0
  br i1 %.not30, label %35, label %29

29:                                               ; preds = %26
  %30 = tail call zeroext i1 @SDL_EventEnabled_REAL(i32 noundef 4864) #8
  br i1 %30, label %31, label %35

31:                                               ; preds = %29
  call void @llvm.lifetime.start.p0(i64 128, ptr nonnull %5) #8
  call void @llvm.memset.p0.i64(ptr noundef nonnull align 8 dereferenceable(128) %5, i8 0, i64 128, i1 false)
  store i32 4864, ptr %5, align 8
  %32 = getelementptr inbounds nuw i8, ptr %5, i64 8
  store i64 %0, ptr %32, align 8
  %33 = getelementptr inbounds nuw i8, ptr %5, i64 20
  store i32 %17, ptr %33, align 4
  %34 = call zeroext i1 @SDL_PushEvent_REAL(ptr noundef nonnull %5) #8
  call void @llvm.lifetime.end.p0(i64 128, ptr nonnull %5) #8
  br label %35

35:                                               ; preds = %.thread34, %26, %29, %31, %4
  %.0 = phi i32 [ 0, %4 ], [ %17, %31 ], [ %17, %29 ], [ 0, %26 ], [ 0, %.thread34 ]
  ret i32 %.0
}